; ModuleID = '4/224.c'
source_filename = "4/224.c"
target datalayout = "e-m:e-p270:32:32-p271:32:32-p272:64:64-i64:64-f80:128-n8:16:32:64-S128"
target triple = "x86_64-pc-linux-gnu"

@.str = private unnamed_addr constant [5 x i8] c"%d%d\00", align 1
@.str.1 = private unnamed_addr constant [3 x i8] c"%d\00", align 1
@.str.2 = private unnamed_addr constant [4 x i8] c"%d\0A\00", align 1

; Function Attrs: noinline nounwind uwtable
define dso_local void @main() #0 {
  %1 = alloca i32, align 4
  %2 = alloca i32, align 4
  %3 = alloca i32, align 4
  %4 = alloca i32, align 4
  %5 = alloca i32, align 4
  %6 = alloca [100 x [100 x i32]], align 16
  %7 = call i32 (i8*, ...) @__isoc99_scanf(i8* getelementptr inbounds ([5 x i8], [5 x i8]* @.str, i64 0, i64 0), i32* %1, i32* %2)
  store i32 0, i32* %3, align 4
  br label %8

8:                                                ; preds = %29, %0
  %9 = load i32, i32* %3, align 4
  %10 = load i32, i32* %1, align 4
  %11 = icmp slt i32 %9, %10
  br i1 %11, label %12, label %32

12:                                               ; preds = %8
  store i32 0, i32* %4, align 4
  br label %13

13:                                               ; preds = %25, %12
  %14 = load i32, i32* %4, align 4
  %15 = load i32, i32* %2, align 4
  %16 = icmp slt i32 %14, %15
  br i1 %16, label %17, label %28

17:                                               ; preds = %13
  %18 = load i32, i32* %3, align 4
  %19 = sext i32 %18 to i64
  %20 = getelementptr inbounds [100 x [100 x i32]], [100 x [100 x i32]]* %6, i64 0, i64 %19
  %21 = load i32, i32* %4, align 4
  %22 = sext i32 %21 to i64
  %23 = getelementptr inbounds [100 x i32], [100 x i32]* %20, i64 0, i64 %22
  %24 = call i32 (i8*, ...) @__isoc99_scanf(i8* getelementptr inbounds ([3 x i8], [3 x i8]* @.str.1, i64 0, i64 0), i32* %23)
  br label %25

25:                                               ; preds = %17
  %26 = load i32, i32* %4, align 4
  %27 = add nsw i32 %26, 1
  store i32 %27, i32* %4, align 4
  br label %13

28:                                               ; preds = %13
  br label %29

29:                                               ; preds = %28
  %30 = load i32, i32* %3, align 4
  %31 = add nsw i32 %30, 1
  store i32 %31, i32* %3, align 4
  br label %8

32:                                               ; preds = %8
  store i32 0, i32* %5, align 4
  br label %33

33:                                               ; preds = %65, %32
  %34 = load i32, i32* %5, align 4
  %35 = load i32, i32* %2, align 4
  %36 = icmp slt i32 %34, %35
  br i1 %36, label %37, label %68

37:                                               ; preds = %33
  store i32 0, i32* %3, align 4
  br label %38

38:                                               ; preds = %61, %37
  %39 = load i32, i32* %3, align 4
  %40 = load i32, i32* %5, align 4
  %41 = add nsw i32 %40, 1
  %42 = icmp slt i32 %39, %41
  br i1 %42, label %43, label %47

43:                                               ; preds = %38
  %44 = load i32, i32* %3, align 4
  %45 = load i32, i32* %1, align 4
  %46 = icmp slt i32 %44, %45
  br label %47

47:                                               ; preds = %43, %38
  %48 = phi i1 [ false, %38 ], [ %46, %43 ]
  br i1 %48, label %49, label %64

49:                                               ; preds = %47
  %50 = load i32, i32* %5, align 4
  %51 = load i32, i32* %3, align 4
  %52 = sub nsw i32 %50, %51
  store i32 %52, i32* %4, align 4
  %53 = load i32, i32* %3, align 4
  %54 = sext i32 %53 to i64
  %55 = getelementptr inbounds [100 x [100 x i32]], [100 x [100 x i32]]* %6, i64 0, i64 %54
  %56 = load i32, i32* %4, align 4
  %57 = sext i32 %56 to i64
  %58 = getelementptr inbounds [100 x i32], [100 x i32]* %55, i64 0, i64 %57
  %59 = load i32, i32* %58, align 4
  %60 = call i32 (i8*, ...) @printf(i8* getelementptr inbounds ([4 x i8], [4 x i8]* @.str.2, i64 0, i64 0), i32 %59)
  br label %61

61:                                               ; preds = %49
  %62 = load i32, i32* %3, align 4
  %63 = add nsw i32 %62, 1
  store i32 %63, i32* %3, align 4
  br label %38

64:                                               ; preds = %47
  br label %65

65:                                               ; preds = %64
  %66 = load i32, i32* %5, align 4
  %67 = add nsw i32 %66, 1
  store i32 %67, i32* %5, align 4
  br label %33

68:                                               ; preds = %33
  %69 = load i32, i32* %2, align 4
  store i32 %69, i32* %5, align 4
  br label %70

70:                                               ; preds = %109, %68
  %71 = load i32, i32* %5, align 4
  %72 = load i32, i32* %2, align 4
  %73 = load i32, i32* %1, align 4
  %74 = add nsw i32 %72, %73
  %75 = sub nsw i32 %74, 1
  %76 = icmp slt i32 %71, %75
  br i1 %76, label %77, label %112

77:                                               ; preds = %70
  %78 = load i32, i32* %5, align 4
  %79 = load i32, i32* %2, align 4
  %80 = sub nsw i32 %78, %79
  %81 = add nsw i32 %80, 1
  store i32 %81, i32* %3, align 4
  br label %82

82:                                               ; preds = %105, %77
  %83 = load i32, i32* %3, align 4
  %84 = load i32, i32* %1, align 4
  %85 = icmp slt i32 %83, %84
  br i1 %85, label %86, label %91

86:                                               ; preds = %82
  %87 = load i32, i32* %3, align 4
  %88 = load i32, i32* %5, align 4
  %89 = add nsw i32 %88, 1
  %90 = icmp slt i32 %87, %89
  br label %91

91:                                               ; preds = %86, %82
  %92 = phi i1 [ false, %82 ], [ %90, %86 ]
  br i1 %92, label %93, label %108

93:                                               ; preds = %91
  %94 = load i32, i32* %5, align 4
  %95 = load i32, i32* %3, align 4
  %96 = sub nsw i32 %94, %95
  store i32 %96, i32* %4, align 4
  %97 = load i32, i32* %3, align 4
  %98 = sext i32 %97 to i64
  %99 = getelementptr inbounds [100 x [100 x i32]], [100 x [100 x i32]]* %6, i64 0, i64 %98
  %100 = load i32, i32* %4, align 4
  %101 = sext i32 %100 to i64
  %102 = getelementptr inbounds [100 x i32], [100 x i32]* %99, i64 0, i64 %101
  %103 = load i32, i32* %102, align 4
  %104 = call i32 (i8*, ...) @printf(i8* getelementptr inbounds ([4 x i8], [4 x i8]* @.str.2, i64 0, i64 0), i32 %103)
  br label %105

105:                                              ; preds = %93
  %106 = load i32, i32* %3, align 4
  %107 = add nsw i32 %106, 1
  store i32 %107, i32* %3, align 4
  br label %82

108:                                              ; preds = %91
  br label %109

109:                                              ; preds = %108
  %110 = load i32, i32* %5, align 4
  %111 = add nsw i32 %110, 1
  store i32 %111, i32* %5, align 4
  br label %70

112:                                              ; preds = %70
  ret void
}

declare dso_local i32 @__isoc99_scanf(i8*, ...) #1

declare dso_local i32 @printf(i8*, ...) #1


!llvm.module.flags = !{!0}
!llvm.ident = !{!1}

!0 = !{i32 1, !"wchar_size", i32 4}
!1 = !{!"clang version 10.0.0-4ubuntu1 "}
